target datalayout = "e-m:e-p270:32:32-p271:32:32-p272:64:64-i64:64-i128:128-f80:128-n8:16:32:64-S128"
target triple = "x86_64-pc-linux-gnu"

%"class.llvm::AArch64MCExpr" = type <{ %"class.llvm::MCTargetExpr", ptr, i32, [4 x i8] }>
%"class.llvm::MCTargetExpr" = type { ptr, %"class.llvm::MCExpr" }
%"class.llvm::MCExpr" = type <{ i8, i32, [3 x i8], %"class.llvm::SMLoc" }>
%"class.llvm::SMLoc" = type { ptr }
%"class.llvm::StringRef" = type { ptr, i64 }

@.str = private unnamed_addr constant [1 x i8] zeroinitializer, align 1
@.str.1 = private unnamed_addr constant [7 x i8] c":lo12:\00", align 1
@.str.2 = private unnamed_addr constant [9 x i8] c":abs_g3:\00", align 1
@.str.3 = private unnamed_addr constant [9 x i8] c":abs_g2:\00", align 1
@.str.4 = private unnamed_addr constant [11 x i8] c":abs_g2_s:\00", align 1
@.str.5 = private unnamed_addr constant [12 x i8] c":abs_g2_nc:\00", align 1
@.str.6 = private unnamed_addr constant [9 x i8] c":abs_g1:\00", align 1
@.str.7 = private unnamed_addr constant [11 x i8] c":abs_g1_s:\00", align 1
@.str.8 = private unnamed_addr constant [12 x i8] c":abs_g1_nc:\00", align 1
@.str.9 = private unnamed_addr constant [9 x i8] c":abs_g0:\00", align 1
@.str.10 = private unnamed_addr constant [11 x i8] c":abs_g0_s:\00", align 1
@.str.11 = private unnamed_addr constant [12 x i8] c":abs_g0_nc:\00", align 1
@.str.12 = private unnamed_addr constant [10 x i8] c":prel_g3:\00", align 1
@.str.13 = private unnamed_addr constant [10 x i8] c":prel_g2:\00", align 1
@.str.14 = private unnamed_addr constant [13 x i8] c":prel_g2_nc:\00", align 1
@.str.15 = private unnamed_addr constant [10 x i8] c":prel_g1:\00", align 1
@.str.16 = private unnamed_addr constant [13 x i8] c":prel_g1_nc:\00", align 1
@.str.17 = private unnamed_addr constant [10 x i8] c":prel_g0:\00", align 1
@.str.18 = private unnamed_addr constant [13 x i8] c":prel_g0_nc:\00", align 1
@.str.19 = private unnamed_addr constant [12 x i8] c":dtprel_g2:\00", align 1
@.str.20 = private unnamed_addr constant [12 x i8] c":dtprel_g1:\00", align 1
@.str.21 = private unnamed_addr constant [15 x i8] c":dtprel_g1_nc:\00", align 1
@.str.22 = private unnamed_addr constant [12 x i8] c":dtprel_g0:\00", align 1
@.str.23 = private unnamed_addr constant [15 x i8] c":dtprel_g0_nc:\00", align 1
@.str.24 = private unnamed_addr constant [14 x i8] c":dtprel_hi12:\00", align 1
@.str.25 = private unnamed_addr constant [14 x i8] c":dtprel_lo12:\00", align 1
@.str.26 = private unnamed_addr constant [17 x i8] c":dtprel_lo12_nc:\00", align 1
@.str.27 = private unnamed_addr constant [11 x i8] c":tprel_g2:\00", align 1
@.str.28 = private unnamed_addr constant [11 x i8] c":tprel_g1:\00", align 1
@.str.29 = private unnamed_addr constant [14 x i8] c":tprel_g1_nc:\00", align 1
@.str.30 = private unnamed_addr constant [11 x i8] c":tprel_g0:\00", align 1
@.str.31 = private unnamed_addr constant [14 x i8] c":tprel_g0_nc:\00", align 1
@.str.32 = private unnamed_addr constant [13 x i8] c":tprel_hi12:\00", align 1
@.str.33 = private unnamed_addr constant [13 x i8] c":tprel_lo12:\00", align 1
@.str.34 = private unnamed_addr constant [16 x i8] c":tprel_lo12_nc:\00", align 1
@.str.35 = private unnamed_addr constant [15 x i8] c":tlsdesc_lo12:\00", align 1
@.str.36 = private unnamed_addr constant [13 x i8] c":pg_hi21_nc:\00", align 1
@.str.37 = private unnamed_addr constant [6 x i8] c":got:\00", align 1
@.str.38 = private unnamed_addr constant [15 x i8] c":gotpage_lo15:\00", align 1
@.str.39 = private unnamed_addr constant [11 x i8] c":got_lo12:\00", align 1
@.str.40 = private unnamed_addr constant [11 x i8] c":gottprel:\00", align 1
@.str.41 = private unnamed_addr constant [16 x i8] c":gottprel_lo12:\00", align 1
@.str.42 = private unnamed_addr constant [14 x i8] c":gottprel_g1:\00", align 1
@.str.43 = private unnamed_addr constant [17 x i8] c":gottprel_g0_nc:\00", align 1
@.str.44 = private unnamed_addr constant [10 x i8] c":tlsdesc:\00", align 1
@.str.45 = private unnamed_addr constant [14 x i8] c":secrel_lo12:\00", align 1
@.str.46 = private unnamed_addr constant [14 x i8] c":secrel_hi12:\00", align 1

; Function Attrs: mustprogress nounwind uwtable
define linkonce_odr hidden noundef i64 @_ZNSt11char_traitsIcE6lengthEPKc(ptr noundef %0) #0 comdat align 2 {
  %2 = alloca ptr, align 8
  store ptr %0, ptr %2, align 8
  %3 = load ptr, ptr %2, align 8
  %4 = call i64 @strlen(ptr noundef %3) #8
  ret i64 %4
}

; Function Attrs: mustprogress nounwind uwtable
define linkonce_odr hidden void @_ZN4llvm9StringRefC2EPKc(ptr noundef nonnull align 8 dereferenceable(16) %0, ptr noundef %1) unnamed_addr #0 comdat align 2 {
  %3 = alloca ptr, align 8
  %4 = alloca ptr, align 8
  store ptr %0, ptr %3, align 8
  store ptr %1, ptr %4, align 8
  %5 = load ptr, ptr %3, align 8
  %6 = getelementptr inbounds nuw %"class.llvm::StringRef", ptr %5, i32 0, i32 0
  %7 = load ptr, ptr %4, align 8
  store ptr %7, ptr %6, align 8
  %8 = getelementptr inbounds nuw %"class.llvm::StringRef", ptr %5, i32 0, i32 1
  %9 = load ptr, ptr %4, align 8
  %10 = icmp ne ptr %9, null
  br i1 %10, label %11, label %14

11:                                               ; preds = %2
  %12 = load ptr, ptr %4, align 8
  %13 = call noundef i64 @_ZNSt11char_traitsIcE6lengthEPKc(ptr noundef %12)
  br label %15

14:                                               ; preds = %2
  br label %15

15:                                               ; preds = %14, %11
  %16 = phi i64 [ %13, %11 ], [ 0, %14 ]
  store i64 %16, ptr %8, align 8
  ret void
}

; Function Attrs: mustprogress nounwind uwtable
define linkonce_odr hidden noundef i32 @_ZNK4llvm13AArch64MCExpr7getKindEv(ptr noundef nonnull align 8 dereferenceable(36) %0) #0 comdat align 2 {
  %2 = alloca ptr, align 8
  store ptr %0, ptr %2, align 8
  %3 = load ptr, ptr %2, align 8
  %4 = getelementptr inbounds nuw %"class.llvm::AArch64MCExpr", ptr %3, i32 0, i32 2
  %5 = load i32, ptr %4, align 8
  ret i32 %5
}

; Function Attrs: mustprogress nounwind uwtable
define dso_local { ptr, i64 } @_ZNK4llvm13AArch64MCExpr18getVariantKindNameEv(ptr noundef nonnull align 8 dereferenceable(36) %0) #0 align 2 {
  %2 = alloca %"class.llvm::StringRef", align 8
  %3 = alloca ptr, align 8
  store ptr %0, ptr %3, align 8
  %4 = load ptr, ptr %3, align 8
  %5 = call noundef i32 @_ZNK4llvm13AArch64MCExpr7getKindEv(ptr noundef nonnull align 8 dereferenceable(36) %4)
  switch i32 %5, label %57 [
    i32 1, label %6
    i32 289, label %7
    i32 113, label %8
    i32 97, label %9
    i32 98, label %10
    i32 353, label %11
    i32 81, label %12
    i32 82, label %13
    i32 337, label %14
    i32 65, label %15
    i32 66, label %16
    i32 321, label %17
    i32 115, label %18
    i32 99, label %19
    i32 355, label %20
    i32 83, label %21
    i32 339, label %22
    i32 67, label %23
    i32 323, label %24
    i32 101, label %25
    i32 85, label %26
    i32 341, label %27
    i32 69, label %28
    i32 325, label %29
    i32 53, label %30
    i32 37, label %31
    i32 293, label %32
    i32 103, label %33
    i32 87, label %34
    i32 343, label %35
    i32 71, label %36
    i32 327, label %37
    i32 55, label %38
    i32 39, label %39
    i32 295, label %40
    i32 40, label %41
    i32 17, label %42
    i32 273, label %43
    i32 4, label %44
    i32 20, label %45
    i32 388, label %46
    i32 292, label %47
    i32 6, label %48
    i32 22, label %49
    i32 294, label %50
    i32 86, label %51
    i32 326, label %52
    i32 8, label %53
    i32 24, label %54
    i32 41, label %55
    i32 57, label %56
  ]

6:                                                ; preds = %1
  call void @_ZN4llvm9StringRefC2EPKc(ptr noundef nonnull align 8 dereferenceable(16) %2, ptr noundef @.str)
  br label %58

7:                                                ; preds = %1
  call void @_ZN4llvm9StringRefC2EPKc(ptr noundef nonnull align 8 dereferenceable(16) %2, ptr noundef @.str.1)
  br label %58

8:                                                ; preds = %1
  call void @_ZN4llvm9StringRefC2EPKc(ptr noundef nonnull align 8 dereferenceable(16) %2, ptr noundef @.str.2)
  br label %58

9:                                                ; preds = %1
  call void @_ZN4llvm9StringRefC2EPKc(ptr noundef nonnull align 8 dereferenceable(16) %2, ptr noundef @.str.3)
  br label %58

10:                                               ; preds = %1
  call void @_ZN4llvm9StringRefC2EPKc(ptr noundef nonnull align 8 dereferenceable(16) %2, ptr noundef @.str.4)
  br label %58

11:                                               ; preds = %1
  call void @_ZN4llvm9StringRefC2EPKc(ptr noundef nonnull align 8 dereferenceable(16) %2, ptr noundef @.str.5)
  br label %58

12:                                               ; preds = %1
  call void @_ZN4llvm9StringRefC2EPKc(ptr noundef nonnull align 8 dereferenceable(16) %2, ptr noundef @.str.6)
  br label %58

13:                                               ; preds = %1
  call void @_ZN4llvm9StringRefC2EPKc(ptr noundef nonnull align 8 dereferenceable(16) %2, ptr noundef @.str.7)
  br label %58

14:                                               ; preds = %1
  call void @_ZN4llvm9StringRefC2EPKc(ptr noundef nonnull align 8 dereferenceable(16) %2, ptr noundef @.str.8)
  br label %58

15:                                               ; preds = %1
  call void @_ZN4llvm9StringRefC2EPKc(ptr noundef nonnull align 8 dereferenceable(16) %2, ptr noundef @.str.9)
  br label %58

16:                                               ; preds = %1
  call void @_ZN4llvm9StringRefC2EPKc(ptr noundef nonnull align 8 dereferenceable(16) %2, ptr noundef @.str.10)
  br label %58

17:                                               ; preds = %1
  call void @_ZN4llvm9StringRefC2EPKc(ptr noundef nonnull align 8 dereferenceable(16) %2, ptr noundef @.str.11)
  br label %58

18:                                               ; preds = %1
  call void @_ZN4llvm9StringRefC2EPKc(ptr noundef nonnull align 8 dereferenceable(16) %2, ptr noundef @.str.12)
  br label %58

19:                                               ; preds = %1
  call void @_ZN4llvm9StringRefC2EPKc(ptr noundef nonnull align 8 dereferenceable(16) %2, ptr noundef @.str.13)
  br label %58

20:                                               ; preds = %1
  call void @_ZN4llvm9StringRefC2EPKc(ptr noundef nonnull align 8 dereferenceable(16) %2, ptr noundef @.str.14)
  br label %58

21:                                               ; preds = %1
  call void @_ZN4llvm9StringRefC2EPKc(ptr noundef nonnull align 8 dereferenceable(16) %2, ptr noundef @.str.15)
  br label %58

22:                                               ; preds = %1
  call void @_ZN4llvm9StringRefC2EPKc(ptr noundef nonnull align 8 dereferenceable(16) %2, ptr noundef @.str.16)
  br label %58

23:                                               ; preds = %1
  call void @_ZN4llvm9StringRefC2EPKc(ptr noundef nonnull align 8 dereferenceable(16) %2, ptr noundef @.str.17)
  br label %58

24:                                               ; preds = %1
  call void @_ZN4llvm9StringRefC2EPKc(ptr noundef nonnull align 8 dereferenceable(16) %2, ptr noundef @.str.18)
  br label %58

25:                                               ; preds = %1
  call void @_ZN4llvm9StringRefC2EPKc(ptr noundef nonnull align 8 dereferenceable(16) %2, ptr noundef @.str.19)
  br label %58

26:                                               ; preds = %1
  call void @_ZN4llvm9StringRefC2EPKc(ptr noundef nonnull align 8 dereferenceable(16) %2, ptr noundef @.str.20)
  br label %58

27:                                               ; preds = %1
  call void @_ZN4llvm9StringRefC2EPKc(ptr noundef nonnull align 8 dereferenceable(16) %2, ptr noundef @.str.21)
  br label %58

28:                                               ; preds = %1
  call void @_ZN4llvm9StringRefC2EPKc(ptr noundef nonnull align 8 dereferenceable(16) %2, ptr noundef @.str.22)
  br label %58

29:                                               ; preds = %1
  call void @_ZN4llvm9StringRefC2EPKc(ptr noundef nonnull align 8 dereferenceable(16) %2, ptr noundef @.str.23)
  br label %58

30:                                               ; preds = %1
  call void @_ZN4llvm9StringRefC2EPKc(ptr noundef nonnull align 8 dereferenceable(16) %2, ptr noundef @.str.24)
  br label %58

31:                                               ; preds = %1
  call void @_ZN4llvm9StringRefC2EPKc(ptr noundef nonnull align 8 dereferenceable(16) %2, ptr noundef @.str.25)
  br label %58

32:                                               ; preds = %1
  call void @_ZN4llvm9StringRefC2EPKc(ptr noundef nonnull align 8 dereferenceable(16) %2, ptr noundef @.str.26)
  br label %58

33:                                               ; preds = %1
  call void @_ZN4llvm9StringRefC2EPKc(ptr noundef nonnull align 8 dereferenceable(16) %2, ptr noundef @.str.27)
  br label %58

34:                                               ; preds = %1
  call void @_ZN4llvm9StringRefC2EPKc(ptr noundef nonnull align 8 dereferenceable(16) %2, ptr noundef @.str.28)
  br label %58

35:                                               ; preds = %1
  call void @_ZN4llvm9StringRefC2EPKc(ptr noundef nonnull align 8 dereferenceable(16) %2, ptr noundef @.str.29)
  br label %58

36:                                               ; preds = %1
  call void @_ZN4llvm9StringRefC2EPKc(ptr noundef nonnull align 8 dereferenceable(16) %2, ptr noundef @.str.30)
  br label %58

37:                                               ; preds = %1
  call void @_ZN4llvm9StringRefC2EPKc(ptr noundef nonnull align 8 dereferenceable(16) %2, ptr noundef @.str.31)
  br label %58

38:                                               ; preds = %1
  call void @_ZN4llvm9StringRefC2EPKc(ptr noundef nonnull align 8 dereferenceable(16) %2, ptr noundef @.str.32)
  br label %58

39:                                               ; preds = %1
  call void @_ZN4llvm9StringRefC2EPKc(ptr noundef nonnull align 8 dereferenceable(16) %2, ptr noundef @.str.33)
  br label %58

40:                                               ; preds = %1
  call void @_ZN4llvm9StringRefC2EPKc(ptr noundef nonnull align 8 dereferenceable(16) %2, ptr noundef @.str.34)
  br label %58

41:                                               ; preds = %1
  call void @_ZN4llvm9StringRefC2EPKc(ptr noundef nonnull align 8 dereferenceable(16) %2, ptr noundef @.str.35)
  br label %58

42:                                               ; preds = %1
  call void @_ZN4llvm9StringRefC2EPKc(ptr noundef nonnull align 8 dereferenceable(16) %2, ptr noundef @.str)
  br label %58

43:                                               ; preds = %1
  call void @_ZN4llvm9StringRefC2EPKc(ptr noundef nonnull align 8 dereferenceable(16) %2, ptr noundef @.str.36)
  br label %58

44:                                               ; preds = %1
  call void @_ZN4llvm9StringRefC2EPKc(ptr noundef nonnull align 8 dereferenceable(16) %2, ptr noundef @.str.37)
  br label %58

45:                                               ; preds = %1
  call void @_ZN4llvm9StringRefC2EPKc(ptr noundef nonnull align 8 dereferenceable(16) %2, ptr noundef @.str.37)
  br label %58

46:                                               ; preds = %1
  call void @_ZN4llvm9StringRefC2EPKc(ptr noundef nonnull align 8 dereferenceable(16) %2, ptr noundef @.str.38)
  br label %58

47:                                               ; preds = %1
  call void @_ZN4llvm9StringRefC2EPKc(ptr noundef nonnull align 8 dereferenceable(16) %2, ptr noundef @.str.39)
  br label %58

48:                                               ; preds = %1
  call void @_ZN4llvm9StringRefC2EPKc(ptr noundef nonnull align 8 dereferenceable(16) %2, ptr noundef @.str.40)
  br label %58

49:                                               ; preds = %1
  call void @_ZN4llvm9StringRefC2EPKc(ptr noundef nonnull align 8 dereferenceable(16) %2, ptr noundef @.str.40)
  br label %58

50:                                               ; preds = %1
  call void @_ZN4llvm9StringRefC2EPKc(ptr noundef nonnull align 8 dereferenceable(16) %2, ptr noundef @.str.41)
  br label %58

51:                                               ; preds = %1
  call void @_ZN4llvm9StringRefC2EPKc(ptr noundef nonnull align 8 dereferenceable(16) %2, ptr noundef @.str.42)
  br label %58

52:                                               ; preds = %1
  call void @_ZN4llvm9StringRefC2EPKc(ptr noundef nonnull align 8 dereferenceable(16) %2, ptr noundef @.str.43)
  br label %58

53:                                               ; preds = %1
  call void @_ZN4llvm9StringRefC2EPKc(ptr noundef nonnull align 8 dereferenceable(16) %2, ptr noundef @.str)
  br label %58

54:                                               ; preds = %1
  call void @_ZN4llvm9StringRefC2EPKc(ptr noundef nonnull align 8 dereferenceable(16) %2, ptr noundef @.str.44)
  br label %58

55:                                               ; preds = %1
  call void @_ZN4llvm9StringRefC2EPKc(ptr noundef nonnull align 8 dereferenceable(16) %2, ptr noundef @.str.45)
  br label %58

56:                                               ; preds = %1
  call void @_ZN4llvm9StringRefC2EPKc(ptr noundef nonnull align 8 dereferenceable(16) %2, ptr noundef @.str.46)
  br label %58

57:                                               ; preds = %1
  unreachable

58:                                               ; preds = %56, %55, %54, %53, %52, %51, %50, %49, %48, %47, %46, %45, %44, %43, %42, %41, %40, %39, %38, %37, %36, %35, %34, %33, %32, %31, %30, %29, %28, %27, %26, %25, %24, %23, %22, %21, %20, %19, %18, %17, %16, %15, %14, %13, %12, %11, %10, %9, %8, %7, %6
  %59 = load { ptr, i64 }, ptr %2, align 8
  ret { ptr, i64 } %59
}